target datalayout = "e-m:e-p270:32:32-p271:32:32-p272:64:64-i64:64-i128:128-f80:128-n8:16:32:64-S128"
target triple = "x86_64-pc-linux-gnu"

%struct.FT_ListRec_ = type { ptr, ptr }
%struct.FT_FaceRec_ = type { i64, i64, i64, i64, i64, ptr, ptr, i32, ptr, i32, ptr, %struct.FT_Generic_, %struct.FT_BBox_, i16, i16, i16, i16, i16, i16, i16, i16, ptr, ptr, ptr, ptr, ptr, ptr, %struct.FT_ListRec_, %struct.FT_Generic_, ptr, ptr }
%struct.FT_BBox_ = type { i64, i64, i64, i64 }
%struct.FT_Generic_ = type { ptr, ptr }
%struct.CID_FaceRec_ = type { %struct.FT_FaceRec_, ptr, ptr, %struct.CID_FaceInfoRec_, %struct.PS_FontExtraRec_, ptr, ptr, ptr, ptr }
%struct.CID_FaceInfoRec_ = type { ptr, i64, i32, ptr, ptr, i32, %struct.PS_FontInfoRec_, %struct.FT_BBox_, i64, i32, [16 x i64], i64, i32, i32, i64, i32, ptr, i64 }
%struct.PS_FontInfoRec_ = type { ptr, ptr, ptr, ptr, ptr, i64, i8, i16, i16 }
%struct.PS_FontExtraRec_ = type { i16 }
%struct.FT_StreamRec_ = type { ptr, i64, i64, %union.FT_StreamDesc_, %union.FT_StreamDesc_, ptr, ptr, ptr, ptr, ptr }
%union.FT_StreamDesc_ = type { i64 }

; Function Attrs: nounwind uwtable
define internal i32 @cid_hex_to_binary(ptr noundef %0, i64 noundef %1, i64 noundef %2, ptr noundef %3, ptr noundef %4) #0 {
  %6 = alloca ptr, align 8
  %7 = alloca i64, align 8
  %8 = alloca i64, align 8
  %9 = alloca ptr, align 8
  %10 = alloca ptr, align 8
  %11 = alloca ptr, align 8
  %12 = alloca i32, align 4
  %13 = alloca [256 x i8], align 16
  %14 = alloca ptr, align 8
  %15 = alloca ptr, align 8
  %16 = alloca ptr, align 8
  %17 = alloca ptr, align 8
  %18 = alloca i8, align 1
  %19 = alloca i8, align 1
  %20 = alloca i8, align 1
  %21 = alloca i64, align 8
  %22 = alloca i64, align 8
  store ptr %0, ptr %6, align 8
  store i64 %1, ptr %7, align 8
  store i64 %2, ptr %8, align 8
  store ptr %3, ptr %9, align 8
  store ptr %4, ptr %10, align 8
  %23 = load ptr, ptr %9, align 8
  %24 = getelementptr inbounds %struct.CID_FaceRec_, ptr %23, i32 0, i32 0
  %25 = getelementptr inbounds %struct.FT_FaceRec_, ptr %24, i32 0, i32 26
  %26 = load ptr, ptr %25, align 8
  store ptr %26, ptr %11, align 8
  %27 = load ptr, ptr %6, align 8
  store ptr %27, ptr %16, align 8
  %28 = load ptr, ptr %11, align 8
  %29 = load i64, ptr %8, align 8
  %30 = call i32 @FT_Stream_Seek(ptr noundef %28, i64 noundef %29)
  store i32 %30, ptr %12, align 4
  %31 = icmp ne i32 %30, 0
  br i1 %31, label %32, label %33

32:                                               ; preds = %5
  br label %202

33:                                               ; preds = %5
  %34 = load ptr, ptr %16, align 8
  %35 = load i64, ptr %7, align 8
  %36 = getelementptr inbounds i8, ptr %34, i64 %35
  store ptr %36, ptr %17, align 8
  %37 = getelementptr inbounds [256 x i8], ptr %13, i64 0, i64 0
  store ptr %37, ptr %14, align 8
  %38 = load ptr, ptr %14, align 8
  store ptr %38, ptr %15, align 8
  store i8 1, ptr %19, align 1
  store i8 0, ptr %20, align 1
  br label %39

39:                                               ; preds = %198, %156, %33
  %40 = load ptr, ptr %16, align 8
  %41 = load ptr, ptr %17, align 8
  %42 = icmp ult ptr %40, %41
  br i1 %42, label %43, label %201

43:                                               ; preds = %39
  %44 = load ptr, ptr %14, align 8
  %45 = load ptr, ptr %15, align 8
  %46 = icmp uge ptr %44, %45
  br i1 %46, label %47, label %80

47:                                               ; preds = %43
  %48 = load ptr, ptr %11, align 8
  %49 = call i64 @FT_Stream_Pos(ptr noundef %48)
  store i64 %49, ptr %21, align 8
  %50 = load ptr, ptr %11, align 8
  %51 = getelementptr inbounds %struct.FT_StreamRec_, ptr %50, i32 0, i32 1
  %52 = load i64, ptr %51, align 8
  %53 = load i64, ptr %21, align 8
  %54 = sub i64 %52, %53
  store i64 %54, ptr %22, align 8
  %55 = load i64, ptr %22, align 8
  %56 = icmp eq i64 %55, 0
  br i1 %56, label %57, label %58

57:                                               ; preds = %47
  store i32 160, ptr %12, align 4
  br label %202

58:                                               ; preds = %47
  %59 = load ptr, ptr %11, align 8
  %60 = getelementptr inbounds [256 x i8], ptr %13, i64 0, i64 0
  %61 = load i64, ptr %22, align 8
  %62 = icmp ugt i64 256, %61
  br i1 %62, label %63, label %65

63:                                               ; preds = %58
  %64 = load i64, ptr %22, align 8
  br label %66

65:                                               ; preds = %58
  br label %66

66:                                               ; preds = %65, %63
  %67 = phi i64 [ %64, %63 ], [ 256, %65 ]
  %68 = call i32 @FT_Stream_Read(ptr noundef %59, ptr noundef %60, i64 noundef %67)
  store i32 %68, ptr %12, align 4
  %69 = icmp ne i32 %68, 0
  br i1 %69, label %70, label %71

70:                                               ; preds = %66
  br label %202

71:                                               ; preds = %66
  %72 = getelementptr inbounds [256 x i8], ptr %13, i64 0, i64 0
  store ptr %72, ptr %14, align 8
  %73 = load ptr, ptr %14, align 8
  %74 = load ptr, ptr %11, align 8
  %75 = call i64 @FT_Stream_Pos(ptr noundef %74)
  %76 = getelementptr inbounds i8, ptr %73, i64 %75
  %77 = load i64, ptr %21, align 8
  %78 = sub i64 0, %77
  %79 = getelementptr inbounds i8, ptr %76, i64 %78
  store ptr %79, ptr %15, align 8
  br label %80

80:                                               ; preds = %71, %43
  %81 = load ptr, ptr %14, align 8
  %82 = load i8, ptr %81, align 1
  %83 = zext i8 %82 to i32
  %84 = sub i32 %83, 48
  %85 = icmp ult i32 %84, 10
  br i1 %85, label %86, label %92

86:                                               ; preds = %80
  %87 = load ptr, ptr %14, align 8
  %88 = load i8, ptr %87, align 1
  %89 = zext i8 %88 to i32
  %90 = sub nsw i32 %89, 48
  %91 = trunc i32 %90 to i8
  store i8 %91, ptr %18, align 1
  br label %170

92:                                               ; preds = %80
  %93 = load ptr, ptr %14, align 8
  %94 = load i8, ptr %93, align 1
  %95 = zext i8 %94 to i32
  %96 = icmp sge i32 %95, 97
  br i1 %96, label %97, label %109

97:                                               ; preds = %92
  %98 = load ptr, ptr %14, align 8
  %99 = load i8, ptr %98, align 1
  %100 = zext i8 %99 to i32
  %101 = icmp sle i32 %100, 102
  br i1 %101, label %102, label %109

102:                                              ; preds = %97
  %103 = load ptr, ptr %14, align 8
  %104 = load i8, ptr %103, align 1
  %105 = zext i8 %104 to i32
  %106 = sub nsw i32 %105, 97
  %107 = add nsw i32 %106, 10
  %108 = trunc i32 %107 to i8
  store i8 %108, ptr %18, align 1
  br label %169

109:                                              ; preds = %97, %92
  %110 = load ptr, ptr %14, align 8
  %111 = load i8, ptr %110, align 1
  %112 = zext i8 %111 to i32
  %113 = icmp sge i32 %112, 65
  br i1 %113, label %114, label %126

114:                                              ; preds = %109
  %115 = load ptr, ptr %14, align 8
  %116 = load i8, ptr %115, align 1
  %117 = zext i8 %116 to i32
  %118 = icmp sle i32 %117, 70
  br i1 %118, label %119, label %126

119:                                              ; preds = %114
  %120 = load ptr, ptr %14, align 8
  %121 = load i8, ptr %120, align 1
  %122 = zext i8 %121 to i32
  %123 = sub nsw i32 %122, 65
  %124 = add nsw i32 %123, 10
  %125 = trunc i32 %124 to i8
  store i8 %125, ptr %18, align 1
  br label %168

126:                                              ; preds = %114, %109
  %127 = load ptr, ptr %14, align 8
  %128 = load i8, ptr %127, align 1
  %129 = zext i8 %128 to i32
  %130 = icmp eq i32 %129, 32
  br i1 %130, label %156, label %131

131:                                              ; preds = %126
  %132 = load ptr, ptr %14, align 8
  %133 = load i8, ptr %132, align 1
  %134 = zext i8 %133 to i32
  %135 = icmp eq i32 %134, 9
  br i1 %135, label %156, label %136

136:                                              ; preds = %131
  %137 = load ptr, ptr %14, align 8
  %138 = load i8, ptr %137, align 1
  %139 = zext i8 %138 to i32
  %140 = icmp eq i32 %139, 13
  br i1 %140, label %156, label %141

141:                                              ; preds = %136
  %142 = load ptr, ptr %14, align 8
  %143 = load i8, ptr %142, align 1
  %144 = zext i8 %143 to i32
  %145 = icmp eq i32 %144, 10
  br i1 %145, label %156, label %146

146:                                              ; preds = %141
  %147 = load ptr, ptr %14, align 8
  %148 = load i8, ptr %147, align 1
  %149 = zext i8 %148 to i32
  %150 = icmp eq i32 %149, 12
  br i1 %150, label %156, label %151

151:                                              ; preds = %146
  %152 = load ptr, ptr %14, align 8
  %153 = load i8, ptr %152, align 1
  %154 = zext i8 %153 to i32
  %155 = icmp eq i32 %154, 0
  br i1 %155, label %156, label %159

156:                                              ; preds = %151, %146, %141, %136, %131, %126
  %157 = load ptr, ptr %14, align 8
  %158 = getelementptr inbounds i8, ptr %157, i32 1
  store ptr %158, ptr %14, align 8
  br label %39, !llvm.loop !14

159:                                              ; preds = %151
  %160 = load ptr, ptr %14, align 8
  %161 = load i8, ptr %160, align 1
  %162 = zext i8 %161 to i32
  %163 = icmp eq i32 %162, 62
  br i1 %163, label %164, label %165

164:                                              ; preds = %159
  store i8 0, ptr %18, align 1
  store i8 1, ptr %20, align 1
  br label %166

165:                                              ; preds = %159
  store i32 160, ptr %12, align 4
  br label %202

166:                                              ; preds = %164
  br label %167

167:                                              ; preds = %166
  br label %168

168:                                              ; preds = %167, %119
  br label %169

169:                                              ; preds = %168, %102
  br label %170

170:                                              ; preds = %169, %86
  %171 = load i8, ptr %19, align 1
  %172 = icmp ne i8 %171, 0
  br i1 %172, label %173, label %179

173:                                              ; preds = %170
  %174 = load i8, ptr %18, align 1
  %175 = zext i8 %174 to i32
  %176 = shl i32 %175, 4
  %177 = trunc i32 %176 to i8
  %178 = load ptr, ptr %16, align 8
  store i8 %177, ptr %178, align 1
  br label %190

179:                                              ; preds = %170
  %180 = load ptr, ptr %16, align 8
  %181 = load i8, ptr %180, align 1
  %182 = zext i8 %181 to i32
  %183 = load i8, ptr %18, align 1
  %184 = zext i8 %183 to i32
  %185 = add nsw i32 %182, %184
  %186 = trunc i32 %185 to i8
  %187 = load ptr, ptr %16, align 8
  store i8 %186, ptr %187, align 1
  %188 = load ptr, ptr %16, align 8
  %189 = getelementptr inbounds i8, ptr %188, i32 1
  store ptr %189, ptr %16, align 8
  br label %190

190:                                              ; preds = %179, %173
  %191 = load i8, ptr %19, align 1
  %192 = zext i8 %191 to i32
  %193 = sub nsw i32 1, %192
  %194 = trunc i32 %193 to i8
  store i8 %194, ptr %19, align 1
  %195 = load i8, ptr %20, align 1
  %196 = icmp ne i8 %195, 0
  br i1 %196, label %197, label %198

197:                                              ; preds = %190
  br label %201

198:                                              ; preds = %190
  %199 = load ptr, ptr %14, align 8
  %200 = getelementptr inbounds i8, ptr %199, i32 1
  store ptr %200, ptr %14, align 8
  br label %39, !llvm.loop !14

201:                                              ; preds = %197, %39
  store i32 0, ptr %12, align 4
  br label %202

202:                                              ; preds = %201, %165, %70, %57, %32
  %203 = load ptr, ptr %16, align 8
  %204 = load ptr, ptr %6, align 8
  %205 = ptrtoint ptr %203 to i64
  %206 = ptrtoint ptr %204 to i64
  %207 = sub i64 %205, %206
  %208 = load ptr, ptr %10, align 8
  store i64 %207, ptr %208, align 8
  %209 = load i32, ptr %12, align 4
  ret i32 %209
}