; Function Attrs: nounwind uwtable
define internal fastcc i32 @cid_hex_to_binary(ptr noundef %0, i64 noundef %1, i64 noundef %2, ptr %.192.val, ptr noundef nonnull writeonly captures(none) %3) unnamed_addr #2 {
  %5 = alloca [256 x i8], align 16
  %6 = tail call i32 @FT_Stream_Seek(ptr noundef %.192.val, i64 noundef %2) #13
  %.not = icmp eq i32 %6, 0
  br i1 %.not, label %7, label %.loopexit

7:                                                ; preds = %4
  %8 = getelementptr inbounds i8, ptr %0, i64 %1
  %9 = icmp sgt i64 %1, 0
  br i1 %9, label %.lr.ph.lr.ph, label %.loopexit

.lr.ph.lr.ph:                                     ; preds = %7
  %10 = getelementptr inbounds nuw i8, ptr %.192.val, i64 8
  br label %.lr.ph.split.us.preheader

.lr.ph.split.us.preheader:                        ; preds = %45, %.lr.ph.lr.ph
  %.050.ph68 = phi ptr [ %5, %.lr.ph.lr.ph ], [ %47, %45 ]
  %.053.ph67 = phi i8 [ 1, %.lr.ph.lr.ph ], [ %46, %45 ]
  %.055.ph66 = phi ptr [ %5, %.lr.ph.lr.ph ], [ %.156.us, %45 ]
  %.158.ph64 = phi ptr [ %0, %.lr.ph.lr.ph ], [ %.3, %45 ]
  br label %.lr.ph.split.us

.lr.ph.split.us:                                  ; preds = %.lr.ph.split.us.preheader, %34
  %.05020.us = phi ptr [ %35, %34 ], [ %.050.ph68, %.lr.ph.split.us.preheader ]
  %.05519.us = phi ptr [ %.156.us, %34 ], [ %.055.ph66, %.lr.ph.split.us.preheader ]
  %.not66.us = icmp ult ptr %.05020.us, %.05519.us
  br i1 %.not66.us, label %24, label %11

11:                                               ; preds = %.lr.ph.split.us
  %12 = call i64 @FT_Stream_Pos(ptr noundef %.192.val) #13
  %13 = load i64, ptr %10, align 8
  %14 = icmp eq i64 %13, %12
  br i1 %14, label %.loopexit, label %15

15:                                               ; preds = %11
  %16 = sub i64 %13, %12
  %17 = call i64 @llvm.umin.i64(i64 %16, i64 256)
  %18 = call i32 @FT_Stream_Read(ptr noundef nonnull %.192.val, ptr noundef nonnull %5, i64 noundef %17) #13
  %.not67.us = icmp eq i32 %18, 0
  br i1 %.not67.us, label %19, label %.loopexit

19:                                               ; preds = %15
  %20 = call i64 @FT_Stream_Pos(ptr noundef nonnull %.192.val) #13
  %21 = getelementptr inbounds i8, ptr %5, i64 %20
  %22 = sub i64 0, %12
  %23 = getelementptr inbounds i8, ptr %21, i64 %22
  br label %24

24:                                               ; preds = %19, %.lr.ph.split.us
  %.156.us = phi ptr [ %23, %19 ], [ %.05519.us, %.lr.ph.split.us ]
  %.1.us = phi ptr [ %5, %19 ], [ %.05020.us, %.lr.ph.split.us ]
  %25 = load i8, ptr %.1.us, align 1
  %26 = zext i8 %25 to i32
  %27 = add nsw i32 %26, -48
  %28 = icmp ult i32 %27, 10
  br i1 %28, label %.split.us, label %29

29:                                               ; preds = %24
  %30 = add i8 %25, -97
  %or.cond.us = icmp ult i8 %30, 6
  br i1 %or.cond.us, label %.split40.us, label %31

31:                                               ; preds = %29
  %32 = add i8 %25, -65
  %or.cond70.us = icmp ult i8 %32, 6
  br i1 %or.cond70.us, label %.split45.us, label %33

33:                                               ; preds = %31
  switch i8 %25, label %.loopexit [
    i8 32, label %34
    i8 9, label %34
    i8 13, label %34
    i8 10, label %34
    i8 12, label %34
    i8 0, label %34
    i8 62, label %.loopexit1
  ]

34:                                               ; preds = %33, %33, %33, %33, %33, %33
  %35 = getelementptr inbounds nuw i8, ptr %.1.us, i64 1
  br label %.lr.ph.split.us

.split.us:                                        ; preds = %24
  %36 = trunc nuw nsw i32 %27 to i8
  br label %.loopexit1

.split40.us:                                      ; preds = %29
  %37 = add nsw i8 %25, -87
  br label %.loopexit1

.split45.us:                                      ; preds = %31
  %38 = add nsw i8 %25, -55
  br label %.loopexit1

.loopexit1:                                       ; preds = %33, %.split40.us, %.split45.us, %.split.us
  %.054 = phi i8 [ %36, %.split.us ], [ %37, %.split40.us ], [ %38, %.split45.us ], [ 0, %33 ]
  %.not69 = phi i1 [ true, %.split.us ], [ true, %.split40.us ], [ true, %.split45.us ], [ false, %33 ]
  %.not68 = icmp eq i8 %.053.ph67, 0
  br i1 %.not68, label %41, label %39

39:                                               ; preds = %.loopexit1
  %40 = shl nuw i8 %.054, 4
  br label %45

41:                                               ; preds = %.loopexit1
  %42 = load i8, ptr %.158.ph64, align 1
  %43 = add i8 %42, %.054
  %44 = getelementptr inbounds nuw i8, ptr %.158.ph64, i64 1
  br label %45

45:                                               ; preds = %41, %39
  %.sink = phi i8 [ %43, %41 ], [ %40, %39 ]
  %.3 = phi ptr [ %44, %41 ], [ %.158.ph64, %39 ]
  store i8 %.sink, ptr %.158.ph64, align 1
  %46 = xor i8 %.053.ph67, 1
  %47 = getelementptr inbounds nuw i8, ptr %.1.us, i64 1
  %48 = icmp ult ptr %.3, %8
  %or.cond = select i1 %.not69, i1 %48, i1 false
  br i1 %or.cond, label %.lr.ph.split.us.preheader, label %.loopexit, !llvm.loop !14

.loopexit:                                        ; preds = %45, %15, %11, %33, %7, %4
  %.057 = phi ptr [ %0, %4 ], [ %0, %7 ], [ %.158.ph64, %33 ], [ %.158.ph64, %11 ], [ %.158.ph64, %15 ], [ %.3, %45 ]
  %.0 = phi i32 [ %6, %4 ], [ 0, %7 ], [ %18, %15 ], [ 160, %11 ], [ 160, %33 ], [ 0, %45 ]
  %49 = ptrtoint ptr %.057 to i64
  %50 = ptrtoint ptr %0 to i64
  %51 = sub i64 %49, %50
  store i64 %51, ptr %3, align 8
  ret i32 %.0
}